target datalayout = "e-m:e-p270:32:32-p271:32:32-p272:64:64-i64:64-i128:128-f80:128-n8:16:32:64-S128"
target triple = "x86_64-pc-linux-gnu"

%"class.icu_77::TimeZoneTransition" = type { %"class.icu_77::UObject", double, ptr, ptr }
%"class.icu_77::UObject" = type { ptr }

@_ZTVN6icu_7718TimeZoneTransitionE = unnamed_addr constant { [5 x ptr] } { [5 x ptr] [ptr null, ptr @_ZTIN6icu_7718TimeZoneTransitionE, ptr @_ZN6icu_7718TimeZoneTransitionD1Ev, ptr @_ZN6icu_7718TimeZoneTransitionD0Ev, ptr @_ZNK6icu_7718TimeZoneTransition17getDynamicClassIDEv] }, align 8
@_ZTVN6icu_777UObjectE = available_externally unnamed_addr constant { [5 x ptr] } { [5 x ptr] [ptr null, ptr @_ZTIN6icu_777UObjectE, ptr @_ZN6icu_777UObjectD1Ev, ptr @_ZN6icu_777UObjectD0Ev, ptr @_ZNK6icu_777UObject17getDynamicClassIDEv] }, align 8

; Function Attrs: inlinehint mustprogress nounwind uwtable
define linkonce_odr void @_ZN6icu_777UObjectC2Ev(ptr noundef nonnull align 8 dereferenceable(8) %0) unnamed_addr #3 comdat align 2 {
  %2 = alloca ptr, align 8
  store ptr %0, ptr %2, align 8, !tbaa !19
  %3 = load ptr, ptr %2, align 8
  store ptr getelementptr inbounds inrange(-16, 24) ({ [5 x ptr] }, ptr @_ZTVN6icu_777UObjectE, i32 0, i32 0, i32 2), ptr %3, align 8, !tbaa !12
  ret void
}

; Function Attrs: mustprogress uwtable
define void @_ZN6icu_7718TimeZoneTransitionC2EdRKNS_12TimeZoneRuleES3_(ptr noundef nonnull align 8 dereferenceable(32) %0, double noundef %1, ptr noundef nonnull align 8 dereferenceable(80) %2, ptr noundef nonnull align 8 dereferenceable(80) %3) unnamed_addr #1 align 2 personality ptr @__gxx_personality_v0 {
  %5 = alloca ptr, align 8
  %6 = alloca double, align 8
  %7 = alloca ptr, align 8
  %8 = alloca ptr, align 8
  %9 = alloca ptr, align 8
  %10 = alloca i32, align 4
  store ptr %0, ptr %5, align 8, !tbaa !3
  store double %1, ptr %6, align 8, !tbaa !8
  store ptr %2, ptr %7, align 8, !tbaa !10
  store ptr %3, ptr %8, align 8, !tbaa !10
  %11 = load ptr, ptr %5, align 8
  %12 = getelementptr inbounds i8, ptr %11, i64 0
  call void @llvm.memset.p0.i64(ptr align 8 %12, i8 0, i64 8, i1 false)
  call void @_ZN6icu_777UObjectC2Ev(ptr noundef nonnull align 8 dereferenceable(8) %11) #6
  store ptr getelementptr inbounds inrange(-16, 24) ({ [5 x ptr] }, ptr @_ZTVN6icu_7718TimeZoneTransitionE, i32 0, i32 0, i32 2), ptr %11, align 8, !tbaa !12
  %13 = getelementptr inbounds nuw %"class.icu_77::TimeZoneTransition", ptr %11, i32 0, i32 1
  %14 = load double, ptr %6, align 8, !tbaa !8
  store double %14, ptr %13, align 8, !tbaa !14
  %15 = getelementptr inbounds nuw %"class.icu_77::TimeZoneTransition", ptr %11, i32 0, i32 2
  %16 = load ptr, ptr %7, align 8, !tbaa !10
  %17 = load ptr, ptr %16, align 8, !tbaa !12
  %18 = getelementptr inbounds ptr, ptr %17, i64 3
  %19 = load ptr, ptr %18, align 8
  %20 = invoke noundef ptr %19(ptr noundef nonnull align 8 dereferenceable(80) %16)
          to label %21 unwind label %29

21:                                               ; preds = %4
  store ptr %20, ptr %15, align 8, !tbaa !17
  %22 = getelementptr inbounds nuw %"class.icu_77::TimeZoneTransition", ptr %11, i32 0, i32 3
  %23 = load ptr, ptr %8, align 8, !tbaa !10
  %24 = load ptr, ptr %23, align 8, !tbaa !12
  %25 = getelementptr inbounds ptr, ptr %24, i64 3
  %26 = load ptr, ptr %25, align 8
  %27 = invoke noundef ptr %26(ptr noundef nonnull align 8 dereferenceable(80) %23)
          to label %28 unwind label %29

28:                                               ; preds = %21
  store ptr %27, ptr %22, align 8, !tbaa !18
  ret void

29:                                               ; preds = %21, %4
  %30 = landingpad { ptr, i32 }
          cleanup
  %31 = extractvalue { ptr, i32 } %30, 0
  store ptr %31, ptr %9, align 8
  %32 = extractvalue { ptr, i32 } %30, 1
  store i32 %32, ptr %10, align 4
  call void @_ZN6icu_777UObjectD2Ev(ptr noundef nonnull align 8 dereferenceable(8) %11) #6
  br label %33

33:                                               ; preds = %29
  %34 = load ptr, ptr %9, align 8
  %35 = load i32, ptr %10, align 4
  %36 = insertvalue { ptr, i32 } poison, ptr %34, 0
  %37 = insertvalue { ptr, i32 } %36, i32 %35, 1
  resume { ptr, i32 } %37
}