; Function Attrs: mustprogress uwtable
define void @_ZN6icu_7718TimeZoneTransitionC2EdRKNS_12TimeZoneRuleES3_(ptr noundef nonnull align 8 dereferenceable(32) initializes((0, 16)) %0, double noundef %1, ptr noundef nonnull align 8 dereferenceable(80) %2, ptr noundef nonnull align 8 dereferenceable(80) %3) unnamed_addr #1 align 2 personality ptr @__gxx_personality_v0 {
  store ptr getelementptr inbounds nuw inrange(-16, 24) (i8, ptr @_ZTVN6icu_7718TimeZoneTransitionE, i64 16), ptr %0, align 8, !tbaa !3
  %5 = getelementptr inbounds nuw i8, ptr %0, i64 8
  store double %1, ptr %5, align 8, !tbaa !6
  %6 = load ptr, ptr %2, align 8, !tbaa !3
  %7 = getelementptr inbounds nuw i8, ptr %6, i64 24
  %8 = load ptr, ptr %7, align 8
  %9 = invoke noundef ptr %8(ptr noundef nonnull align 8 dereferenceable(80) %2)
          to label %10 unwind label %18

10:                                               ; preds = %4
  %11 = getelementptr inbounds nuw i8, ptr %0, i64 16
  store ptr %9, ptr %11, align 8, !tbaa !13
  %12 = load ptr, ptr %3, align 8, !tbaa !3
  %13 = getelementptr inbounds nuw i8, ptr %12, i64 24
  %14 = load ptr, ptr %13, align 8
  %15 = invoke noundef ptr %14(ptr noundef nonnull align 8 dereferenceable(80) %3)
          to label %16 unwind label %18

16:                                               ; preds = %10
  %17 = getelementptr inbounds nuw i8, ptr %0, i64 24
  store ptr %15, ptr %17, align 8, !tbaa !14
  ret void

18:                                               ; preds = %10, %4
  %19 = landingpad { ptr, i32 }
          cleanup
  tail call void @_ZN6icu_777UObjectD2Ev(ptr noundef nonnull align 8 dereferenceable(8) %0) #8
  resume { ptr, i32 } %19
}